; Function Attrs: null_pointer_is_valid sspstrong uwtable
define noundef zeroext i1 @wmem_tree_foreach(ptr noundef readonly captures(none) %0, ptr noundef %1, ptr noundef %2) local_unnamed_addr #0 {
  %4 = getelementptr inbounds nuw i8, ptr %0, i64 16
  %5 = load ptr, ptr %4, align 8
  %.not = icmp eq ptr %5, null
  br i1 %.not, label %8, label %6

6:                                                ; preds = %3
  %7 = tail call fastcc zeroext i1 @wmem_tree_foreach_nodes(ptr noundef %5, ptr noundef %1, ptr noundef %2)
  br label %8

8:                                                ; preds = %3, %6
  %.0 = phi i1 [ %7, %6 ], [ false, %3 ]
  ret i1 %.0
}